target datalayout = "e-m:e-p270:32:32-p271:32:32-p272:64:64-i64:64-i128:128-f80:128-n8:16:32:64-S128"
target triple = "x86_64-pc-linux-gnu"

%struct.catclist = type { i32, i32, %struct.dlist_node, [4 x i64], i32, i8, i8, i16, i32, ptr, [0 x ptr] }
%struct.dlist_node = type { ptr, ptr }
%struct.catctup = type { i32, i32, [4 x i64], %struct.dlist_node, i32, i8, i8, %struct.HeapTupleData, ptr, ptr }
%struct.HeapTupleData = type { i32, %struct.ItemPointerData, i32, ptr }
%struct.ItemPointerData = type { %struct.BlockIdData, i16 }
%struct.BlockIdData = type { i16, i16 }
%struct.HeapTupleHeaderData = type { %union.anon, %struct.ItemPointerData, i16, i16, i8, [0 x i8] }
%union.anon = type { %struct.HeapTupleFields }
%struct.HeapTupleFields = type { i32, i32, %union.anon.0 }
%union.anon.0 = type { i32 }
%struct.nameData = type { [64 x i8] }
%struct.FormData_pg_opclass = type { i32, i32, %struct.nameData, i32, i32, i32, i32, i8, i32 }

; Function Attrs: inlinehint nounwind uwtable
define internal ptr @GETSTRUCT(ptr noundef %0) #4 {
  %2 = alloca ptr, align 8
  store ptr %0, ptr %2, align 8
  %3 = load ptr, ptr %2, align 8
  %4 = getelementptr inbounds nuw %struct.HeapTupleData, ptr %3, i32 0, i32 3
  %5 = load ptr, ptr %4, align 8
  %6 = load ptr, ptr %2, align 8
  %7 = getelementptr inbounds nuw %struct.HeapTupleData, ptr %6, i32 0, i32 3
  %8 = load ptr, ptr %7, align 8
  %9 = getelementptr inbounds nuw %struct.HeapTupleHeaderData, ptr %8, i32 0, i32 4
  %10 = load i8, ptr %9, align 2
  %11 = zext i8 %10 to i32
  %12 = sext i32 %11 to i64
  %13 = getelementptr inbounds i8, ptr %5, i64 %12
  ret ptr %13
}

; Function Attrs: inlinehint nounwind uwtable
define internal i64 @ObjectIdGetDatum(i32 noundef %0) #4 {
  %2 = alloca i32, align 4
  store i32 %0, ptr %2, align 4
  %3 = load i32, ptr %2, align 4
  %4 = zext i32 %3 to i64
  ret i64 %4
}

; Function Attrs: nounwind uwtable
define dso_local i32 @opclass_for_family_datatype(i32 noundef %0, i32 noundef %1, i32 noundef %2) #0 {
  %4 = alloca i32, align 4
  %5 = alloca i32, align 4
  %6 = alloca i32, align 4
  %7 = alloca i32, align 4
  %8 = alloca ptr, align 8
  %9 = alloca i32, align 4
  %10 = alloca ptr, align 8
  %11 = alloca ptr, align 8
  %12 = alloca i32, align 4
  store i32 %0, ptr %4, align 4
  store i32 %1, ptr %5, align 4
  store i32 %2, ptr %6, align 4
  call void @llvm.lifetime.start.p0(i64 4, ptr %7) #6
  store i32 0, ptr %7, align 4
  call void @llvm.lifetime.start.p0(i64 8, ptr %8) #6
  call void @llvm.lifetime.start.p0(i64 4, ptr %9) #6
  %13 = load i32, ptr %4, align 4
  %14 = call i64 @ObjectIdGetDatum(i32 noundef %13)
  %15 = call ptr @SearchSysCacheList(i32 noundef 13, i32 noundef 1, i64 noundef %14, i64 noundef 0, i64 noundef 0)
  store ptr %15, ptr %8, align 8
  store i32 0, ptr %9, align 4
  br label %16

16:                                               ; preds = %51, %3
  %17 = load i32, ptr %9, align 4
  %18 = load ptr, ptr %8, align 8
  %19 = getelementptr inbounds nuw %struct.catclist, ptr %18, i32 0, i32 8
  %20 = load i32, ptr %19, align 8
  %21 = icmp slt i32 %17, %20
  br i1 %21, label %22, label %54

22:                                               ; preds = %16
  call void @llvm.lifetime.start.p0(i64 8, ptr %10) #6
  %23 = load ptr, ptr %8, align 8
  %24 = getelementptr inbounds nuw %struct.catclist, ptr %23, i32 0, i32 10
  %25 = load i32, ptr %9, align 4
  %26 = sext i32 %25 to i64
  %27 = getelementptr inbounds [0 x ptr], ptr %24, i64 0, i64 %26
  %28 = load ptr, ptr %27, align 8
  %29 = getelementptr inbounds nuw %struct.catctup, ptr %28, i32 0, i32 7
  store ptr %29, ptr %10, align 8
  call void @llvm.lifetime.start.p0(i64 8, ptr %11) #6
  %30 = load ptr, ptr %10, align 8
  %31 = call ptr @GETSTRUCT(ptr noundef %30)
  store ptr %31, ptr %11, align 8
  %32 = load ptr, ptr %11, align 8
  %33 = getelementptr inbounds nuw %struct.FormData_pg_opclass, ptr %32, i32 0, i32 5
  %34 = load i32, ptr %33, align 4
  %35 = load i32, ptr %5, align 4
  %36 = icmp eq i32 %34, %35
  br i1 %36, label %37, label %47

37:                                               ; preds = %22
  %38 = load ptr, ptr %11, align 8
  %39 = getelementptr inbounds nuw %struct.FormData_pg_opclass, ptr %38, i32 0, i32 6
  %40 = load i32, ptr %39, align 4
  %41 = load i32, ptr %6, align 4
  %42 = icmp eq i32 %40, %41
  br i1 %42, label %43, label %47

43:                                               ; preds = %37
  %44 = load ptr, ptr %11, align 8
  %45 = getelementptr inbounds nuw %struct.FormData_pg_opclass, ptr %44, i32 0, i32 0
  %46 = load i32, ptr %45, align 4
  store i32 %46, ptr %7, align 4
  store i32 2, ptr %12, align 4
  br label %48

47:                                               ; preds = %37, %22
  store i32 0, ptr %12, align 4
  br label %48

48:                                               ; preds = %47, %43
  call void @llvm.lifetime.end.p0(i64 8, ptr %11) #6
  call void @llvm.lifetime.end.p0(i64 8, ptr %10) #6
  %49 = load i32, ptr %12, align 4
  switch i32 %49, label %57 [
    i32 0, label %50
    i32 2, label %54
  ]

50:                                               ; preds = %48
  br label %51

51:                                               ; preds = %50
  %52 = load i32, ptr %9, align 4
  %53 = add i32 %52, 1
  store i32 %53, ptr %9, align 4
  br label %16, !llvm.loop !9

54:                                               ; preds = %48, %16
  %55 = load ptr, ptr %8, align 8
  call void @ReleaseCatCacheList(ptr noundef %55)
  %56 = load i32, ptr %7, align 4
  store i32 1, ptr %12, align 4
  call void @llvm.lifetime.end.p0(i64 4, ptr %9) #6
  call void @llvm.lifetime.end.p0(i64 8, ptr %8) #6
  call void @llvm.lifetime.end.p0(i64 4, ptr %7) #6
  ret i32 %56

57:                                               ; preds = %48
  unreachable
}