; Function Attrs: nounwind uwtable
define dso_local i32 @opclass_for_family_datatype(i32 noundef %0, i32 noundef %1, i32 noundef %2) local_unnamed_addr #0 {
  %4 = zext i32 %0 to i64
  %5 = tail call ptr @SearchSysCacheList(i32 noundef 13, i32 noundef 1, i64 noundef %4, i64 noundef 0, i64 noundef 0) #8
  %6 = getelementptr inbounds nuw i8, ptr %5, i64 64
  %7 = load i32, ptr %6, align 8
  %8 = icmp sgt i32 %7, 0
  br i1 %8, label %.lr.ph, label %.loopexit

.lr.ph:                                           ; preds = %3
  %9 = getelementptr inbounds nuw i8, ptr %5, i64 80
  %wide.trip.count = zext nneg i32 %7 to i64
  br label %10

10:                                               ; preds = %.lr.ph, %27
  %indvars.iv = phi i64 [ 0, %.lr.ph ], [ %indvars.iv.next, %27 ]
  %11 = getelementptr inbounds nuw [0 x ptr], ptr %9, i64 0, i64 %indvars.iv
  %12 = load ptr, ptr %11, align 8
  %13 = getelementptr i8, ptr %12, i64 80
  %.val = load ptr, ptr %13, align 8
  %14 = getelementptr inbounds nuw i8, ptr %.val, i64 22
  %15 = load i8, ptr %14, align 2
  %16 = zext i8 %15 to i64
  %17 = getelementptr inbounds nuw i8, ptr %.val, i64 %16
  %18 = getelementptr inbounds nuw i8, ptr %17, i64 80
  %19 = load i32, ptr %18, align 4
  %20 = icmp eq i32 %19, %1
  br i1 %20, label %21, label %27

21:                                               ; preds = %10
  %22 = getelementptr inbounds nuw i8, ptr %17, i64 84
  %23 = load i32, ptr %22, align 4
  %24 = icmp eq i32 %23, %2
  br i1 %24, label %25, label %27

25:                                               ; preds = %21
  %26 = load i32, ptr %17, align 4
  br label %.loopexit

27:                                               ; preds = %21, %10
  %indvars.iv.next = add nuw nsw i64 %indvars.iv, 1
  %exitcond.not = icmp eq i64 %indvars.iv.next, %wide.trip.count
  br i1 %exitcond.not, label %.loopexit, label %10, !llvm.loop !11

.loopexit:                                        ; preds = %27, %3, %25
  %.1 = phi i32 [ %26, %25 ], [ 0, %3 ], [ 0, %27 ]
  tail call void @ReleaseCatCacheList(ptr noundef nonnull %5) #8
  ret i32 %.1
}